; Function Attrs: nounwind uwtable
define hidden void @luaK_concat(ptr noundef readonly captures(none) %0, ptr noundef captures(none) %1, i32 noundef %2) local_unnamed_addr #0 {
  %4 = icmp eq i32 %2, -1
  br i1 %4, label %32, label %5

5:                                                ; preds = %3
  %6 = load i32, ptr %1, align 4, !tbaa !29
  %7 = icmp eq i32 %6, -1
  br i1 %7, label %9, label %.preheader

.preheader:                                       ; preds = %5
  %.val = load ptr, ptr %0, align 8, !tbaa !19
  %8 = getelementptr i8, ptr %.val, i64 24
  %.val.val = load ptr, ptr %8, align 8, !tbaa !20
  br label %10

9:                                                ; preds = %5
  store i32 %2, ptr %1, align 4, !tbaa !29
  br label %32

10:                                               ; preds = %.preheader, %10
  %.0 = phi i32 [ %18, %10 ], [ %6, %.preheader ]
  %11 = sext i32 %.0 to i64
  %12 = getelementptr inbounds i32, ptr %.val.val, i64 %11
  %13 = load i32, ptr %12, align 4, !tbaa !29
  %14 = lshr i32 %13, 14
  %15 = add nsw i32 %14, -131071
  %16 = icmp eq i32 %15, -1
  %17 = add nuw nsw i32 %.0, 1
  %18 = add nsw i32 %17, %15
  %.not13 = icmp eq i32 %18, -1
  %.not = select i1 %16, i1 true, i1 %.not13
  br i1 %.not, label %19, label %10, !llvm.loop !37

19:                                               ; preds = %10
  %20 = getelementptr inbounds i32, ptr %.val.val, i64 %11
  %.neg.i = xor i32 %.0, -1
  %21 = add i32 %2, %.neg.i
  %22 = tail call i32 @llvm.abs.i32(i32 %21, i1 true)
  %23 = icmp samesign ugt i32 %22, 131071
  br i1 %23, label %24, label %fixjump.exit

24:                                               ; preds = %19
  %25 = getelementptr inbounds nuw i8, ptr %0, i64 24
  %26 = load ptr, ptr %25, align 8, !tbaa !30
  tail call void @luaX_syntaxerror(ptr noundef %26, ptr noundef nonnull @.str.1) #8
  %.pre = load i32, ptr %20, align 4, !tbaa !29
  br label %fixjump.exit

fixjump.exit:                                     ; preds = %19, %24
  %27 = phi i32 [ %13, %19 ], [ %.pre, %24 ]
  %28 = and i32 %27, 16383
  %29 = shl i32 %21, 14
  %30 = add i32 %29, 2147467264
  %31 = or disjoint i32 %28, %30
  store i32 %31, ptr %20, align 4, !tbaa !29
  br label %32

32:                                               ; preds = %9, %fixjump.exit, %3
  ret void
}